; Function Attrs: mustprogress uwtable
define void @_ZN7rocksdb18SharedCleanablePtr15MoveAsCleanupToEPNS_9CleanableE(ptr noundef nonnull align 8 captures(none) dereferenceable(8) %0, ptr noundef captures(none) %1) local_unnamed_addr #5 align 2 {
  %3 = load ptr, ptr %0, align 8, !tbaa !25
  %.not = icmp eq ptr %3, null
  br i1 %.not, label %14, label %4

4:                                                ; preds = %2
  %5 = load ptr, ptr %1, align 8, !tbaa !4
  %6 = icmp eq ptr %5, null
  br i1 %6, label %_ZN7rocksdb9Cleanable15RegisterCleanupEPFvPvS1_ES1_S1_.exit, label %7

7:                                                ; preds = %4
  %8 = tail call noalias noundef nonnull dereferenceable(32) ptr @_Znwm(i64 noundef 32) #13
  %9 = getelementptr inbounds nuw i8, ptr %1, i64 24
  %10 = load ptr, ptr %9, align 8, !tbaa !11
  %11 = getelementptr inbounds nuw i8, ptr %8, i64 24
  store ptr %10, ptr %11, align 8, !tbaa !17
  store ptr %8, ptr %9, align 8, !tbaa !11
  br label %_ZN7rocksdb9Cleanable15RegisterCleanupEPFvPvS1_ES1_S1_.exit

_ZN7rocksdb9Cleanable15RegisterCleanupEPFvPvS1_ES1_S1_.exit: ; preds = %4, %7
  %.0.i = phi ptr [ %8, %7 ], [ %1, %4 ]
  store ptr @_ZN7rocksdb18SharedCleanablePtr4Impl12UnrefWrapperEPvS2_, ptr %.0.i, align 8, !tbaa !18
  %12 = getelementptr inbounds nuw i8, ptr %.0.i, i64 8
  store ptr %3, ptr %12, align 8, !tbaa !15
  %13 = getelementptr inbounds nuw i8, ptr %.0.i, i64 16
  store ptr null, ptr %13, align 8, !tbaa !16
  store ptr null, ptr %0, align 8, !tbaa !25
  br label %14

14:                                               ; preds = %_ZN7rocksdb9Cleanable15RegisterCleanupEPFvPvS1_ES1_S1_.exit, %2
  ret void
}